; ModuleID = '28/469.c'
source_filename = "28/469.c"
target datalayout = "e-m:e-p270:32:32-p271:32:32-p272:64:64-i64:64-f80:128-n8:16:32:64-S128"
target triple = "x86_64-pc-linux-gnu"

@.str = private unnamed_addr constant [4 x i8] c"%d,\00", align 1
@.str.1 = private unnamed_addr constant [3 x i8] c"%d\00", align 1

; Function Attrs: noinline nounwind uwtable
define dso_local void @main() #0 {
  %1 = alloca [10000 x i8], align 16
  %2 = alloca i32, align 4
  %3 = alloca i32, align 4
  %4 = alloca i32, align 4
  %5 = alloca [400 x i32], align 16
  %6 = alloca i32, align 4
  %7 = alloca i32, align 4
  %8 = alloca i32, align 4
  %9 = bitcast [10000 x i8]* %1 to i8*
  call void @llvm.memset.p0i8.i64(i8* align 16 %9, i8 0, i64 10000, i1 false)
  %10 = getelementptr inbounds [10000 x i8], [10000 x i8]* %1, i64 0, i64 0
  %11 = call i32 (i8*, ...) bitcast (i32 (...)* @gets to i32 (i8*, ...)*)(i8* %10)
  store i32 0, i32* %4, align 4
  store i32 0, i32* %6, align 4
  store i32 0, i32* %7, align 4
  store i32 0, i32* %2, align 4
  br label %12

12:                                               ; preds = %19, %0
  %13 = load i32, i32* %2, align 4
  %14 = icmp slt i32 %13, 400
  br i1 %14, label %15, label %22

15:                                               ; preds = %12
  %16 = load i32, i32* %2, align 4
  %17 = sext i32 %16 to i64
  %18 = getelementptr inbounds [400 x i32], [400 x i32]* %5, i64 0, i64 %17
  store i32 0, i32* %18, align 4
  br label %19

19:                                               ; preds = %15
  %20 = load i32, i32* %2, align 4
  %21 = add nsw i32 %20, 1
  store i32 %21, i32* %2, align 4
  br label %12

22:                                               ; preds = %12
  %23 = getelementptr inbounds [10000 x i8], [10000 x i8]* %1, i64 0, i64 0
  %24 = call i64 @strlen(i8* %23) #4
  %25 = trunc i64 %24 to i32
  store i32 %25, i32* %3, align 4
  store i32 0, i32* %2, align 4
  br label %26

26:                                               ; preds = %73, %22
  %27 = load i32, i32* %2, align 4
  %28 = load i32, i32* %3, align 4
  %29 = icmp slt i32 %27, %28
  br i1 %29, label %30, label %76

30:                                               ; preds = %26
  %31 = load i32, i32* %2, align 4
  store i32 %31, i32* %8, align 4
  %32 = load i32, i32* %2, align 4
  %33 = sext i32 %32 to i64
  %34 = getelementptr inbounds [10000 x i8], [10000 x i8]* %1, i64 0, i64 %33
  %35 = load i8, i8* %34, align 1
  %36 = sext i8 %35 to i32
  %37 = icmp eq i32 %36, 32
  br i1 %37, label %38, label %39

38:                                               ; preds = %30
  store i32 0, i32* %4, align 4
  br label %40

39:                                               ; preds = %30
  store i32 1, i32* %4, align 4
  br label %40

40:                                               ; preds = %39, %38
  %41 = load i32, i32* %4, align 4
  %42 = icmp eq i32 %41, 1
  br i1 %42, label %43, label %72

43:                                               ; preds = %40
  br label %44

44:                                               ; preds = %57, %43
  %45 = load i32, i32* %8, align 4
  %46 = sext i32 %45 to i64
  %47 = getelementptr inbounds [10000 x i8], [10000 x i8]* %1, i64 0, i64 %46
  %48 = load i8, i8* %47, align 1
  %49 = sext i8 %48 to i32
  %50 = icmp ne i32 %49, 32
  br i1 %50, label %51, label %55

51:                                               ; preds = %44
  %52 = load i32, i32* %8, align 4
  %53 = load i32, i32* %3, align 4
  %54 = icmp slt i32 %52, %53
  br label %55

55:                                               ; preds = %51, %44
  %56 = phi i1 [ false, %44 ], [ %54, %51 ]
  br i1 %56, label %57, label %62

57:                                               ; preds = %55
  %58 = load i32, i32* %7, align 4
  %59 = add nsw i32 %58, 1
  store i32 %59, i32* %7, align 4
  %60 = load i32, i32* %8, align 4
  %61 = add nsw i32 %60, 1
  store i32 %61, i32* %8, align 4
  br label %44

62:                                               ; preds = %55
  %63 = load i32, i32* %7, align 4
  %64 = load i32, i32* %6, align 4
  %65 = sext i32 %64 to i64
  %66 = getelementptr inbounds [400 x i32], [400 x i32]* %5, i64 0, i64 %65
  store i32 %63, i32* %66, align 4
  %67 = load i32, i32* %2, align 4
  %68 = load i32, i32* %7, align 4
  %69 = add nsw i32 %67, %68
  store i32 %69, i32* %2, align 4
  store i32 0, i32* %7, align 4
  %70 = load i32, i32* %6, align 4
  %71 = add nsw i32 %70, 1
  store i32 %71, i32* %6, align 4
  br label %72

72:                                               ; preds = %62, %40
  br label %73

73:                                               ; preds = %72
  %74 = load i32, i32* %2, align 4
  %75 = add nsw i32 %74, 1
  store i32 %75, i32* %2, align 4
  br label %26

76:                                               ; preds = %26
  store i32 0, i32* %2, align 4
  br label %77

77:                                               ; preds = %88, %76
  %78 = load i32, i32* %2, align 4
  %79 = load i32, i32* %6, align 4
  %80 = sub nsw i32 %79, 1
  %81 = icmp slt i32 %78, %80
  br i1 %81, label %82, label %91

82:                                               ; preds = %77
  %83 = load i32, i32* %2, align 4
  %84 = sext i32 %83 to i64
  %85 = getelementptr inbounds [400 x i32], [400 x i32]* %5, i64 0, i64 %84
  %86 = load i32, i32* %85, align 4
  %87 = call i32 (i8*, ...) @printf(i8* getelementptr inbounds ([4 x i8], [4 x i8]* @.str, i64 0, i64 0), i32 %86)
  br label %88

88:                                               ; preds = %82
  %89 = load i32, i32* %2, align 4
  %90 = add nsw i32 %89, 1
  store i32 %90, i32* %2, align 4
  br label %77

91:                                               ; preds = %77
  %92 = load i32, i32* %6, align 4
  %93 = sub nsw i32 %92, 1
  %94 = sext i32 %93 to i64
  %95 = getelementptr inbounds [400 x i32], [400 x i32]* %5, i64 0, i64 %94
  %96 = load i32, i32* %95, align 4
  %97 = call i32 (i8*, ...) @printf(i8* getelementptr inbounds ([3 x i8], [3 x i8]* @.str.1, i64 0, i64 0), i32 %96)
  ret void
}

; Function Attrs: argmemonly nounwind willreturn
declare void @llvm.memset.p0i8.i64(i8* nocapture writeonly, i8, i64, i1 immarg) #1

declare dso_local i32 @gets(...) #2

; Function Attrs: nounwind readonly
declare dso_local i64 @strlen(i8*) #3

declare dso_local i32 @printf(i8*, ...) #2


!llvm.module.flags = !{!0}
!llvm.ident = !{!1}

!0 = !{i32 1, !"wchar_size", i32 4}
!1 = !{!"clang version 10.0.0-4ubuntu1 "}
